; Function Attrs: mustprogress uwtable
define internal fastcc noundef zeroext i1 @_ZN12_GLOBAL__N_113parseSequenceIiLm4EEEbP7_objectRAT0__NS_10RefWrapperIT_EERK7ArgInfo(ptr noundef %0, ptr nocapture noundef nonnull readonly align 8 dereferenceable(32) %1, ptr nocapture noundef nonnull readonly align 8 dereferenceable(12) %2) unnamed_addr #3 personality ptr @__gxx_personality_v0 {
  %4 = icmp eq ptr %0, null
  %5 = icmp eq ptr %0, @_Py_NoneStruct
  %or.cond = or i1 %4, %5
  br i1 %or.cond, label %.loopexit, label %6

6:                                                ; preds = %3
  %7 = tail call i32 @PySequence_Check(ptr noundef nonnull %0)
  %.not = icmp eq i32 %7, 0
  br i1 %.not, label %8, label %11

8:                                                ; preds = %6
  %9 = load ptr, ptr %2, align 8
  %10 = tail call noundef i32 (ptr, ...) @_Z7failmsgPKcz(ptr noundef nonnull @.str.83, ptr noundef %9)
  br label %.loopexit

11:                                               ; preds = %6
  %12 = tail call i64 @PySequence_Size(ptr noundef nonnull %0)
  %.not25 = icmp eq i64 %12, 4
  br i1 %.not25, label %.preheader, label %13

13:                                               ; preds = %11
  %14 = load ptr, ptr %2, align 8
  %15 = tail call noundef i32 (ptr, ...) @_Z7failmsgPKcz(ptr noundef nonnull @.str.84, ptr noundef %14, i64 noundef 4, i64 noundef %12)
  br label %.loopexit

.preheader:                                       ; preds = %11, %_ZN12_GLOBAL__N_111SafeSeqItemD2Ev.exit
  %.02229 = phi i64 [ %33, %_ZN12_GLOBAL__N_111SafeSeqItemD2Ev.exit ], [ 0, %11 ]
  %16 = tail call ptr @PySequence_GetItem(ptr noundef %0, i64 noundef %.02229)
  %17 = getelementptr inbounds [4 x %"class.(anonymous namespace)::RefWrapper"], ptr %1, i64 0, i64 %.02229
  %.val27 = load ptr, ptr %17, align 8
  %18 = invoke noundef zeroext i1 @_Z11pyopencv_toIiEbP7_objectRT_RK7ArgInfo(ptr noundef %16, ptr noundef nonnull align 4 dereferenceable(4) %.val27, ptr noundef nonnull align 8 dereferenceable(12) %2)
          to label %19 unwind label %23

19:                                               ; preds = %.preheader
  br i1 %18, label %25, label %20

20:                                               ; preds = %19
  %21 = load ptr, ptr %2, align 8
  %22 = invoke noundef i32 (ptr, ...) @_Z7failmsgPKcz(ptr noundef nonnull @.str.85, ptr noundef %21, i64 noundef %.02229)
          to label %25 unwind label %23

23:                                               ; preds = %20, %.preheader
  %24 = landingpad { ptr, i32 }
          cleanup
  tail call fastcc void @_ZN12_GLOBAL__N_111SafeSeqItemD2Ev(ptr %16) #12
  resume { ptr, i32 } %24

25:                                               ; preds = %19, %20
  %.not.i.i = icmp eq ptr %16, null
  br i1 %.not.i.i, label %_ZN12_GLOBAL__N_111SafeSeqItemD2Ev.exit, label %26

26:                                               ; preds = %25
  %27 = load i64, ptr %16, align 8
  %28 = add nsw i64 %27, -1
  store i64 %28, ptr %16, align 8
  %.not.i.i.i = icmp eq i64 %28, 0
  br i1 %.not.i.i.i, label %29, label %_ZN12_GLOBAL__N_111SafeSeqItemD2Ev.exit

29:                                               ; preds = %26
  invoke void @_Py_Dealloc(ptr noundef nonnull %16)
          to label %_ZN12_GLOBAL__N_111SafeSeqItemD2Ev.exit unwind label %30

30:                                               ; preds = %29
  %31 = landingpad { ptr, i32 }
          catch ptr null
  %32 = extractvalue { ptr, i32 } %31, 0
  tail call void @__clang_call_terminate(ptr %32) #13
  unreachable

_ZN12_GLOBAL__N_111SafeSeqItemD2Ev.exit:          ; preds = %25, %26, %29
  %33 = add nuw nsw i64 %.02229, 1
  %exitcond.not = icmp ne i64 %33, 4
  %or.cond37.not = select i1 %18, i1 %exitcond.not, i1 false
  br i1 %or.cond37.not, label %.preheader, label %.loopexit, !llvm.loop !11

.loopexit:                                        ; preds = %_ZN12_GLOBAL__N_111SafeSeqItemD2Ev.exit, %3, %13, %8
  %.2 = phi i1 [ false, %13 ], [ false, %8 ], [ true, %3 ], [ %18, %_ZN12_GLOBAL__N_111SafeSeqItemD2Ev.exit ]
  ret i1 %.2
}